; Function Attrs: nounwind uwtable
define internal i32 @pkcs7_bundle_crls_cb(ptr noundef %0, ptr noundef %1) #0 {
  %3 = alloca %struct.cbb_st, align 8
  %4 = alloca ptr, align 8
  call void @llvm.lifetime.start.p0(i64 32, ptr nonnull %3) #4
  %5 = call i32 @CBB_add_asn1(ptr noundef %0, ptr noundef nonnull %3, i8 noundef zeroext -95) #4
  %.not = icmp eq i32 %5, 0
  br i1 %.not, label %21, label %.preheader

.preheader:                                       ; preds = %2
  %6 = call i64 @sk_num(ptr noundef %1) #4
  %.not18 = icmp eq i64 %6, 0
  br i1 %.not18, label %._crit_edge, label %.lr.ph

.lr.ph:                                           ; preds = %.preheader, %.critedge
  %.01317 = phi i64 [ %16, %.critedge ], [ 0, %.preheader ]
  %7 = call ptr @sk_value(ptr noundef %1, i64 noundef %.01317) #4
  call void @llvm.lifetime.start.p0(i64 8, ptr nonnull %4) #4
  %8 = call i32 @i2d_X509_CRL(ptr noundef %7, ptr noundef null) #4
  %9 = icmp slt i32 %8, 0
  br i1 %9, label %19, label %10

10:                                               ; preds = %.lr.ph
  %11 = zext nneg i32 %8 to i64
  %12 = call i32 @CBB_add_space(ptr noundef nonnull %3, ptr noundef nonnull %4, i64 noundef %11) #4
  %.not16 = icmp eq i32 %12, 0
  br i1 %.not16, label %19, label %13

13:                                               ; preds = %10
  %14 = call i32 @i2d_X509_CRL(ptr noundef %7, ptr noundef nonnull %4) #4
  %15 = icmp slt i32 %14, 0
  br i1 %15, label %19, label %.critedge

.critedge:                                        ; preds = %13
  call void @llvm.lifetime.end.p0(i64 8, ptr nonnull %4) #4
  %16 = add nuw i64 %.01317, 1
  %17 = call i64 @sk_num(ptr noundef %1) #4
  %18 = icmp ult i64 %16, %17
  br i1 %18, label %.lr.ph, label %._crit_edge, !llvm.loop !18

19:                                               ; preds = %.lr.ph, %10, %13
  call void @llvm.lifetime.end.p0(i64 8, ptr nonnull %4) #4
  br label %21

._crit_edge:                                      ; preds = %.critedge, %.preheader
  %20 = call i32 @CBB_flush(ptr noundef %0) #4
  br label %21

21:                                               ; preds = %19, %2, %._crit_edge
  %.0 = phi i32 [ 0, %19 ], [ %20, %._crit_edge ], [ 0, %2 ]
  call void @llvm.lifetime.end.p0(i64 32, ptr nonnull %3) #4
  ret i32 %.0
}